target datalayout = "e-m:e-p270:32:32-p271:32:32-p272:64:64-i64:64-i128:128-f80:128-n8:16:32:64-S128"
target triple = "x86_64-pc-linux-gnu"

%struct.SockAddr = type { %struct.sockaddr_storage, i32 }
%struct.sockaddr_storage = type { i16, [118 x i8], i64 }
%struct.Port = type { i32, i8, i32, %struct.SockAddr, %struct.SockAddr, ptr, ptr, i32, i32, ptr, ptr, ptr, ptr, ptr, ptr, ptr, i32, i32, i32, i32, i32, i32, i32, i32, [32 x i8], [32 x i8], i8, ptr, i8, ptr, ptr, i8, i8, i8, ptr, ptr, ptr, i64, i64 }

@.str.2 = private unnamed_addr constant [9 x i8] c"pqcomm.c\00", align 1
@PqRecvLength = internal global i32 0, align 4
@PqRecvPointer = internal global i32 0, align 4
@PqRecvBuffer = internal global [8192 x i8] zeroinitializer, align 16
@MyProcPort = external global ptr, align 8
@.str.30 = private unnamed_addr constant [39 x i8] c"could not receive data from client: %m\00", align 1
@__func__.pq_getbyte_if_available = private unnamed_addr constant [24 x i8] c"pq_getbyte_if_available\00", align 1
@.str.44 = private unnamed_addr constant [30 x i8] c"there is no client connection\00", align 1
@__func__.socket_set_nonblocking = private unnamed_addr constant [23 x i8] c"socket_set_nonblocking\00", align 1

; Function Attrs: nounwind uwtable
define internal void @socket_set_nonblocking(i1 noundef zeroext %0) #0 {
  %2 = alloca i8, align 1
  %3 = zext i1 %0 to i8
  store i8 %3, ptr %2, align 1
  %4 = load ptr, ptr @MyProcPort, align 8
  %5 = icmp eq ptr %4, null
  br i1 %5, label %6, label %17

6:                                                ; preds = %1
  br label %7

7:                                                ; preds = %6
  br i1 true, label %8, label %10

8:                                                ; preds = %7
  %9 = call zeroext i1 @errstart_cold(i32 noundef 21, ptr noundef null) #15
  br i1 %9, label %12, label %15

10:                                               ; preds = %7
  %11 = call zeroext i1 @errstart(i32 noundef 21, ptr noundef null)
  br i1 %11, label %12, label %15

12:                                               ; preds = %10, %8
  %13 = call i32 @errcode(i32 noundef 50332160)
  %14 = call i32 (ptr, ...) @errmsg(ptr noundef @.str.44)
  call void @errfinish(ptr noundef @.str.2, i32 noundef 886, ptr noundef @__func__.socket_set_nonblocking)
  br label %15

15:                                               ; preds = %12, %10, %8
  unreachable

16:                                               ; No predecessors!
  br label %17

17:                                               ; preds = %16, %1
  %18 = load i8, ptr %2, align 1, !range !11, !noundef !12
  %19 = trunc i8 %18 to i1
  %20 = load ptr, ptr @MyProcPort, align 8
  %21 = getelementptr inbounds nuw %struct.Port, ptr %20, i32 0, i32 1
  %22 = zext i1 %19 to i8
  store i8 %22, ptr %21, align 4
  ret void
}

; Function Attrs: nounwind uwtable
define dso_local i32 @pq_getbyte_if_available(ptr noundef %0) #0 {
  %2 = alloca i32, align 4
  %3 = alloca ptr, align 8
  %4 = alloca i32, align 4
  %5 = alloca i32, align 4
  store ptr %0, ptr %3, align 8
  call void @llvm.lifetime.start.p0(i64 4, ptr %4) #14
  %6 = load i32, ptr @PqRecvPointer, align 4
  %7 = load i32, ptr @PqRecvLength, align 4
  %8 = icmp slt i32 %6, %7
  br i1 %8, label %9, label %16

9:                                                ; preds = %1
  %10 = load i32, ptr @PqRecvPointer, align 4
  %11 = add i32 %10, 1
  store i32 %11, ptr @PqRecvPointer, align 4
  %12 = sext i32 %10 to i64
  %13 = getelementptr inbounds [8192 x i8], ptr @PqRecvBuffer, i64 0, i64 %12
  %14 = load i8, ptr %13, align 1
  %15 = load ptr, ptr %3, align 8
  store i8 %14, ptr %15, align 1
  store i32 1, ptr %2, align 4
  store i32 1, ptr %5, align 4
  br label %62

16:                                               ; preds = %1
  call void @socket_set_nonblocking(i1 noundef zeroext true)
  %17 = call ptr @__errno_location() #17
  store i32 0, ptr %17, align 4
  %18 = load ptr, ptr @MyProcPort, align 8
  %19 = load ptr, ptr %3, align 8
  %20 = call i64 @secure_read(ptr noundef %18, ptr noundef %19, i64 noundef 1)
  %21 = trunc i64 %20 to i32
  store i32 %21, ptr %4, align 4
  %22 = load i32, ptr %4, align 4
  %23 = icmp slt i32 %22, 0
  br i1 %23, label %24, label %55

24:                                               ; preds = %16
  %25 = call ptr @__errno_location() #17
  %26 = load i32, ptr %25, align 4
  %27 = icmp eq i32 %26, 11
  br i1 %27, label %36, label %28

28:                                               ; preds = %24
  %29 = call ptr @__errno_location() #17
  %30 = load i32, ptr %29, align 4
  %31 = icmp eq i32 %30, 11
  br i1 %31, label %36, label %32

32:                                               ; preds = %28
  %33 = call ptr @__errno_location() #17
  %34 = load i32, ptr %33, align 4
  %35 = icmp eq i32 %34, 4
  br i1 %35, label %36, label %37

36:                                               ; preds = %32, %28, %24
  store i32 0, ptr %4, align 4
  br label %54

37:                                               ; preds = %32
  %38 = call ptr @__errno_location() #17
  %39 = load i32, ptr %38, align 4
  %40 = icmp ne i32 %39, 0
  br i1 %40, label %41, label %53

41:                                               ; preds = %37
  br label %42

42:                                               ; preds = %41
  br i1 false, label %43, label %45

43:                                               ; preds = %42
  %44 = call zeroext i1 @errstart_cold(i32 noundef 16, ptr noundef null) #15
  br i1 %44, label %47, label %50

45:                                               ; preds = %42
  %46 = call zeroext i1 @errstart(i32 noundef 16, ptr noundef null)
  br i1 %46, label %47, label %50

47:                                               ; preds = %45, %43
  %48 = call i32 @errcode_for_socket_access()
  %49 = call i32 (ptr, ...) @errmsg(ptr noundef @.str.30)
  call void @errfinish(ptr noundef @.str.2, i32 noundef 1043, ptr noundef @__func__.pq_getbyte_if_available)
  br label %50

50:                                               ; preds = %47, %45, %43
  br label %51

51:                                               ; preds = %50
  br label %52

52:                                               ; preds = %51
  br label %53

53:                                               ; preds = %52, %37
  store i32 -1, ptr %4, align 4
  br label %54

54:                                               ; preds = %53, %36
  br label %60

55:                                               ; preds = %16
  %56 = load i32, ptr %4, align 4
  %57 = icmp eq i32 %56, 0
  br i1 %57, label %58, label %59

58:                                               ; preds = %55
  store i32 -1, ptr %4, align 4
  br label %59

59:                                               ; preds = %58, %55
  br label %60

60:                                               ; preds = %59, %54
  %61 = load i32, ptr %4, align 4
  store i32 %61, ptr %2, align 4
  store i32 1, ptr %5, align 4
  br label %62

62:                                               ; preds = %60, %9
  call void @llvm.lifetime.end.p0(i64 4, ptr %4) #14
  %63 = load i32, ptr %2, align 4
  ret i32 %63
}