; Function Attrs: nounwind uwtable
define dso_local range(i32 -1, -2147483648) i32 @pq_getbyte_if_available(ptr noundef %0) local_unnamed_addr #0 {
  %2 = load i32, ptr @PqRecvPointer, align 4
  %3 = load i32, ptr @PqRecvLength, align 4
  %4 = icmp slt i32 %2, %3
  br i1 %4, label %5, label %10

5:                                                ; preds = %1
  %6 = add nsw i32 %2, 1
  store i32 %6, ptr @PqRecvPointer, align 4
  %7 = sext i32 %2 to i64
  %8 = getelementptr inbounds [8192 x i8], ptr @PqRecvBuffer, i64 0, i64 %7
  %9 = load i8, ptr %8, align 1
  store i8 %9, ptr %0, align 1
  br label %33

10:                                               ; preds = %1
  %11 = load ptr, ptr @MyProcPort, align 8
  %12 = icmp eq ptr %11, null
  br i1 %12, label %13, label %socket_set_nonblocking.exit

13:                                               ; preds = %10
  %14 = tail call zeroext i1 @errstart_cold(i32 noundef 21, ptr noundef null) #22
  tail call void @llvm.assume(i1 %14)
  %15 = tail call i32 @errcode(i32 noundef 50332160) #21
  %16 = tail call i32 (ptr, ...) @errmsg(ptr noundef nonnull @.str.44) #21
  tail call void @errfinish(ptr noundef nonnull @.str.2, i32 noundef 886, ptr noundef nonnull @__func__.socket_set_nonblocking) #21
  unreachable

socket_set_nonblocking.exit:                      ; preds = %10
  %17 = getelementptr inbounds nuw i8, ptr %11, i64 4
  store i8 1, ptr %17, align 4
  %18 = tail call ptr @__errno_location() #24
  store i32 0, ptr %18, align 4
  %19 = load ptr, ptr @MyProcPort, align 8
  %20 = tail call i64 @secure_read(ptr noundef %19, ptr noundef %0, i64 noundef 1) #21
  %21 = trunc i64 %20 to i32
  %22 = icmp slt i32 %21, 0
  br i1 %22, label %23, label %31

23:                                               ; preds = %socket_set_nonblocking.exit
  %24 = load i32, ptr %18, align 4
  switch i32 %24, label %25 [
    i32 11, label %33
    i32 4, label %33
    i32 0, label %30
  ]

25:                                               ; preds = %23
  %26 = tail call zeroext i1 @errstart(i32 noundef 16, ptr noundef null) #21
  br i1 %26, label %27, label %30

27:                                               ; preds = %25
  %28 = tail call i32 @errcode_for_socket_access() #21
  %29 = tail call i32 (ptr, ...) @errmsg(ptr noundef nonnull @.str.30) #21
  tail call void @errfinish(ptr noundef nonnull @.str.2, i32 noundef 1043, ptr noundef nonnull @__func__.pq_getbyte_if_available) #21
  br label %30

30:                                               ; preds = %23, %25, %27
  br label %33

31:                                               ; preds = %socket_set_nonblocking.exit
  %32 = icmp eq i32 %21, 0
  %spec.store.select = select i1 %32, i32 -1, i32 %21
  br label %33

33:                                               ; preds = %31, %30, %23, %23, %5
  %.05 = phi i32 [ 1, %5 ], [ -1, %30 ], [ %spec.store.select, %31 ], [ 0, %23 ], [ 0, %23 ]
  ret i32 %.05
}